; ModuleID = '28/913.c'
source_filename = "28/913.c"
target datalayout = "e-m:e-p270:32:32-p271:32:32-p272:64:64-i64:64-f80:128-n8:16:32:64-S128"
target triple = "x86_64-pc-linux-gnu"

@.str = private unnamed_addr constant [3 x i8] c"%d\00", align 1
@.str.1 = private unnamed_addr constant [4 x i8] c",%d\00", align 1

; Function Attrs: noinline nounwind uwtable
define dso_local i32 @main() #0 {
  %1 = alloca i32, align 4
  %2 = alloca [30000 x i8], align 16
  %3 = alloca i32, align 4
  %4 = alloca i32, align 4
  %5 = alloca i32, align 4
  %6 = alloca [300 x i32], align 16
  %7 = alloca i32, align 4
  store i32 0, i32* %1, align 4
  %8 = getelementptr inbounds [30000 x i8], [30000 x i8]* %2, i64 0, i64 0
  %9 = call i32 (i8*, ...) bitcast (i32 (...)* @gets to i32 (i8*, ...)*)(i8* %8)
  store i32 0, i32* %4, align 4
  store i32 0, i32* %5, align 4
  %10 = getelementptr inbounds [30000 x i8], [30000 x i8]* %2, i64 0, i64 0
  %11 = call i64 @strlen(i8* %10) #3
  %12 = trunc i64 %11 to i32
  store i32 %12, i32* %7, align 4
  store i32 0, i32* %3, align 4
  br label %13

13:                                               ; preds = %47, %0
  %14 = load i32, i32* %3, align 4
  %15 = load i32, i32* %7, align 4
  %16 = icmp slt i32 %14, %15
  br i1 %16, label %17, label %50

17:                                               ; preds = %13
  %18 = load i32, i32* %5, align 4
  %19 = add nsw i32 %18, 1
  store i32 %19, i32* %5, align 4
  %20 = load i32, i32* %3, align 4
  %21 = sext i32 %20 to i64
  %22 = getelementptr inbounds [30000 x i8], [30000 x i8]* %2, i64 0, i64 %21
  %23 = load i8, i8* %22, align 1
  %24 = sext i8 %23 to i32
  %25 = icmp eq i32 %24, 32
  br i1 %25, label %26, label %34

26:                                               ; preds = %17
  %27 = load i32, i32* %5, align 4
  %28 = sub nsw i32 %27, 1
  %29 = load i32, i32* %4, align 4
  %30 = sext i32 %29 to i64
  %31 = getelementptr inbounds [300 x i32], [300 x i32]* %6, i64 0, i64 %30
  store i32 %28, i32* %31, align 4
  %32 = load i32, i32* %4, align 4
  %33 = add nsw i32 %32, 1
  store i32 %33, i32* %4, align 4
  store i32 0, i32* %5, align 4
  br label %34

34:                                               ; preds = %26, %17
  %35 = load i32, i32* %3, align 4
  %36 = load i32, i32* %7, align 4
  %37 = sub nsw i32 %36, 1
  %38 = icmp eq i32 %35, %37
  br i1 %38, label %39, label %46

39:                                               ; preds = %34
  %40 = load i32, i32* %5, align 4
  %41 = load i32, i32* %4, align 4
  %42 = sext i32 %41 to i64
  %43 = getelementptr inbounds [300 x i32], [300 x i32]* %6, i64 0, i64 %42
  store i32 %40, i32* %43, align 4
  %44 = load i32, i32* %4, align 4
  %45 = add nsw i32 %44, 1
  store i32 %45, i32* %4, align 4
  br label %50

46:                                               ; preds = %34
  br label %47

47:                                               ; preds = %46
  %48 = load i32, i32* %3, align 4
  %49 = add nsw i32 %48, 1
  store i32 %49, i32* %3, align 4
  br label %13

50:                                               ; preds = %39, %13
  %51 = getelementptr inbounds [300 x i32], [300 x i32]* %6, i64 0, i64 0
  %52 = load i32, i32* %51, align 16
  %53 = call i32 (i8*, ...) @printf(i8* getelementptr inbounds ([3 x i8], [3 x i8]* @.str, i64 0, i64 0), i32 %52)
  store i32 1, i32* %3, align 4
  br label %54

54:                                               ; preds = %71, %50
  %55 = load i32, i32* %3, align 4
  %56 = load i32, i32* %4, align 4
  %57 = icmp slt i32 %55, %56
  br i1 %57, label %58, label %74

58:                                               ; preds = %54
  %59 = load i32, i32* %3, align 4
  %60 = sext i32 %59 to i64
  %61 = getelementptr inbounds [300 x i32], [300 x i32]* %6, i64 0, i64 %60
  %62 = load i32, i32* %61, align 4
  %63 = icmp eq i32 %62, 0
  br i1 %63, label %64, label %65

64:                                               ; preds = %58
  br label %71

65:                                               ; preds = %58
  %66 = load i32, i32* %3, align 4
  %67 = sext i32 %66 to i64
  %68 = getelementptr inbounds [300 x i32], [300 x i32]* %6, i64 0, i64 %67
  %69 = load i32, i32* %68, align 4
  %70 = call i32 (i8*, ...) @printf(i8* getelementptr inbounds ([4 x i8], [4 x i8]* @.str.1, i64 0, i64 0), i32 %69)
  br label %71

71:                                               ; preds = %65, %64
  %72 = load i32, i32* %3, align 4
  %73 = add nsw i32 %72, 1
  store i32 %73, i32* %3, align 4
  br label %54

74:                                               ; preds = %54
  ret i32 0
}

declare dso_local i32 @gets(...) #1

; Function Attrs: nounwind readonly
declare dso_local i64 @strlen(i8*) #2

declare dso_local i32 @printf(i8*, ...) #1


!llvm.module.flags = !{!0}
!llvm.ident = !{!1}

!0 = !{i32 1, !"wchar_size", i32 4}
!1 = !{!"clang version 10.0.0-4ubuntu1 "}
